; Function Attrs: mustprogress nounwind uwtable
define noalias ptr @mi_mbsdup(ptr noundef readonly captures(address_is_null) %0) local_unnamed_addr #3 personality ptr @__gxx_personality_v0 {
  %2 = tail call align 8 ptr @llvm.threadlocal.address.p0(ptr align 8 @_mi_heap_default)
  %3 = load ptr, ptr %2, align 8, !tbaa !33
  %4 = icmp eq ptr %0, null
  br i1 %4, label %mi_strdup.exit, label %_Z10_mi_strlenPKc.exit.i.i

_Z10_mi_strlenPKc.exit.i.i:                       ; preds = %1
  %strlen.i.i.i = tail call i64 @strlen(ptr noundef nonnull readonly dereferenceable(1) %0)
  %5 = add i64 %strlen.i.i.i, 1
  %6 = icmp ult i64 %5, 1025
  br i1 %6, label %7, label %mi_heap_malloc.exit.i.i, !prof !23

7:                                                ; preds = %_Z10_mi_strlenPKc.exit.i.i
  %8 = add nsw i64 %strlen.i.i.i, 8
  %9 = lshr i64 %8, 3
  %10 = getelementptr inbounds nuw i8, ptr %3, i64 248
  %11 = getelementptr inbounds nuw [129 x ptr], ptr %10, i64 0, i64 %9
  %12 = load ptr, ptr %11, align 8, !tbaa !35
  %13 = getelementptr inbounds nuw i8, ptr %12, i64 16
  %14 = load ptr, ptr %13, align 8, !tbaa !31
  %15 = icmp eq ptr %14, null
  br i1 %15, label %mi_heap_malloc.exit.i.i, label %mi_heap_malloc.exit.thread.i.i, !prof !17

mi_heap_malloc.exit.thread.i.i:                   ; preds = %7
  %.val.i.i.i.i.i.i.i = load i64, ptr %14, align 8, !tbaa !20
  %16 = inttoptr i64 %.val.i.i.i.i.i.i.i to ptr
  store ptr %16, ptr %13, align 8, !tbaa !31
  %17 = getelementptr inbounds nuw i8, ptr %12, i64 32
  %18 = load i16, ptr %17, align 8, !tbaa !22
  %19 = add i16 %18, 1
  store i16 %19, ptr %17, align 8, !tbaa !22
  br label %22

mi_heap_malloc.exit.i.i:                          ; preds = %7, %_Z10_mi_strlenPKc.exit.i.i
  %20 = tail call noalias noundef ptr @_Z18_mi_malloc_genericP9mi_heap_smbm(ptr noundef %3, i64 noundef %5, i1 noundef zeroext false, i64 noundef 0) #55
  %21 = icmp eq ptr %20, null
  br i1 %21, label %mi_strdup.exit, label %22

22:                                               ; preds = %mi_heap_malloc.exit.i.i, %mi_heap_malloc.exit.thread.i.i
  %.0.i.i.i14.i.i = phi ptr [ %14, %mi_heap_malloc.exit.thread.i.i ], [ %20, %mi_heap_malloc.exit.i.i ]
  tail call void @llvm.memcpy.p0.p0.i64(ptr nonnull align 1 %.0.i.i.i14.i.i, ptr nonnull readonly align 1 %0, i64 %strlen.i.i.i, i1 false)
  %23 = getelementptr inbounds nuw i8, ptr %.0.i.i.i14.i.i, i64 %strlen.i.i.i
  store i8 0, ptr %23, align 1, !tbaa !25
  br label %mi_strdup.exit

mi_strdup.exit:                                   ; preds = %1, %mi_heap_malloc.exit.i.i, %22
  %.0.i.i = phi ptr [ null, %1 ], [ %.0.i.i.i14.i.i, %22 ], [ null, %mi_heap_malloc.exit.i.i ]
  ret ptr %.0.i.i
}